; ModuleID = '11/903.c'
source_filename = "11/903.c"
target datalayout = "e-m:e-p270:32:32-p271:32:32-p272:64:64-i64:64-f80:128-n8:16:32:64-S128"
target triple = "x86_64-pc-linux-gnu"

@.str = private unnamed_addr constant [9 x i8] c"%d %d %d\00", align 1
@.str.1 = private unnamed_addr constant [3 x i8] c"%d\00", align 1

; Function Attrs: noinline nounwind uwtable
define dso_local i32 @main() #0 {
  %1 = alloca i32, align 4
  %2 = alloca i32, align 4
  %3 = alloca i32, align 4
  %4 = alloca i32, align 4
  %5 = alloca i32, align 4
  store i32 0, i32* %1, align 4
  %6 = call i32 (i8*, ...) @__isoc99_scanf(i8* getelementptr inbounds ([9 x i8], [9 x i8]* @.str, i64 0, i64 0), i32* %2, i32* %3, i32* %4)
  %7 = load i32, i32* %3, align 4
  switch i32 %7, label %43 [
    i32 1, label %8
    i32 2, label %10
    i32 3, label %13
    i32 4, label %16
    i32 5, label %19
    i32 6, label %22
    i32 7, label %25
    i32 8, label %28
    i32 9, label %31
    i32 10, label %34
    i32 11, label %37
    i32 12, label %40
  ]

8:                                                ; preds = %0
  %9 = load i32, i32* %4, align 4
  store i32 %9, i32* %5, align 4
  br label %43

10:                                               ; preds = %0
  %11 = load i32, i32* %4, align 4
  %12 = add nsw i32 31, %11
  store i32 %12, i32* %5, align 4
  br label %43

13:                                               ; preds = %0
  %14 = load i32, i32* %4, align 4
  %15 = add nsw i32 59, %14
  store i32 %15, i32* %5, align 4
  br label %43

16:                                               ; preds = %0
  %17 = load i32, i32* %4, align 4
  %18 = add nsw i32 90, %17
  store i32 %18, i32* %5, align 4
  br label %43

19:                                               ; preds = %0
  %20 = load i32, i32* %4, align 4
  %21 = add nsw i32 120, %20
  store i32 %21, i32* %5, align 4
  br label %43

22:                                               ; preds = %0
  %23 = load i32, i32* %4, align 4
  %24 = add nsw i32 151, %23
  store i32 %24, i32* %5, align 4
  br label %43

25:                                               ; preds = %0
  %26 = load i32, i32* %4, align 4
  %27 = add nsw i32 181, %26
  store i32 %27, i32* %5, align 4
  br label %43

28:                                               ; preds = %0
  %29 = load i32, i32* %4, align 4
  %30 = add nsw i32 212, %29
  store i32 %30, i32* %5, align 4
  br label %43

31:                                               ; preds = %0
  %32 = load i32, i32* %4, align 4
  %33 = add nsw i32 243, %32
  store i32 %33, i32* %5, align 4
  br label %43

34:                                               ; preds = %0
  %35 = load i32, i32* %4, align 4
  %36 = add nsw i32 273, %35
  store i32 %36, i32* %5, align 4
  br label %43

37:                                               ; preds = %0
  %38 = load i32, i32* %4, align 4
  %39 = add nsw i32 304, %38
  store i32 %39, i32* %5, align 4
  br label %43

40:                                               ; preds = %0
  %41 = load i32, i32* %4, align 4
  %42 = add nsw i32 334, %41
  store i32 %42, i32* %5, align 4
  br label %43

43:                                               ; preds = %0, %40, %37, %34, %31, %28, %25, %22, %19, %16, %13, %10, %8
  %44 = load i32, i32* %2, align 4
  %45 = srem i32 %44, 100
  %46 = icmp eq i32 %45, 0
  br i1 %46, label %47, label %51

47:                                               ; preds = %43
  %48 = load i32, i32* %2, align 4
  %49 = srem i32 %48, 400
  %50 = icmp eq i32 %49, 0
  br i1 %50, label %55, label %51

51:                                               ; preds = %47, %43
  %52 = load i32, i32* %2, align 4
  %53 = srem i32 %52, 400
  %54 = icmp eq i32 %53, 0
  br i1 %54, label %55, label %61

55:                                               ; preds = %51, %47
  %56 = load i32, i32* %3, align 4
  %57 = icmp sge i32 %56, 3
  br i1 %57, label %58, label %61

58:                                               ; preds = %55
  %59 = load i32, i32* %5, align 4
  %60 = add nsw i32 %59, 1
  store i32 %60, i32* %5, align 4
  br label %61

61:                                               ; preds = %58, %55, %51
  %62 = load i32, i32* %5, align 4
  %63 = call i32 (i8*, ...) @printf(i8* getelementptr inbounds ([3 x i8], [3 x i8]* @.str.1, i64 0, i64 0), i32 %62)
  %64 = call i32 @getchar()
  %65 = call i32 @getchar()
  %66 = load i32, i32* %1, align 4
  ret i32 %66
}

declare dso_local i32 @__isoc99_scanf(i8*, ...) #1

declare dso_local i32 @printf(i8*, ...) #1

declare dso_local i32 @getchar() #1


!llvm.module.flags = !{!0}
!llvm.ident = !{!1}

!0 = !{i32 1, !"wchar_size", i32 4}
!1 = !{!"clang version 10.0.0-4ubuntu1 "}
