; ModuleID = 'source-C-CXX/10/903.c'
source_filename = "source-C-CXX/10/903.c"
target datalayout = "e-m:e-p270:32:32-p271:32:32-p272:64:64-i64:64-f80:128-n8:16:32:64-S128"
target triple = "x86_64-pc-linux-gnu"

%struct._IO_FILE = type { i32, i8*, i8*, i8*, i8*, i8*, i8*, i8*, i8*, i8*, i8*, i8*, %struct._IO_marker*, %struct._IO_FILE*, i32, i32, i64, i16, i8, [1 x i8], i8*, i64, %struct._IO_codecvt*, %struct._IO_wide_data*, %struct._IO_FILE*, i8*, i64, i32, [20 x i8] }
%struct._IO_marker = type opaque
%struct._IO_codecvt = type opaque
%struct._IO_wide_data = type opaque

@.str = private unnamed_addr constant [9 x i8] c"%d %d %d\00", align 1
@.str.1 = private unnamed_addr constant [3 x i8] c"%d\00", align 1
@stdin = external local_unnamed_addr global %struct._IO_FILE*, align 8

; Function Attrs: nofree nounwind sspstrong uwtable
define dso_local i32 @main() local_unnamed_addr #0 {
  %1 = alloca i32, align 4
  %2 = alloca i32, align 4
  %3 = alloca i32, align 4
  %4 = bitcast i32* %1 to i8*
  call void @llvm.lifetime.start.p0i8(i64 4, i8* nonnull %4) #3
  %5 = bitcast i32* %2 to i8*
  call void @llvm.lifetime.start.p0i8(i64 4, i8* nonnull %5) #3
  %6 = bitcast i32* %3 to i8*
  call void @llvm.lifetime.start.p0i8(i64 4, i8* nonnull %6) #3
  %7 = call i32 (i8*, ...) @__isoc99_scanf(i8* getelementptr inbounds ([9 x i8], [9 x i8]* @.str, i64 0, i64 0), i32* nonnull %1, i32* nonnull %2, i32* nonnull %3)
  %8 = load i32, i32* %2, align 4, !tbaa !5
  switch i32 %8, label %44 [
    i32 1, label %9
    i32 2, label %11
    i32 3, label %14
    i32 4, label %17
    i32 5, label %20
    i32 6, label %23
    i32 7, label %26
    i32 8, label %29
    i32 9, label %32
    i32 10, label %35
    i32 11, label %38
    i32 12, label %41
  ]

9:                                                ; preds = %0
  %10 = load i32, i32* %3, align 4, !tbaa !5
  br label %44

11:                                               ; preds = %0
  %12 = load i32, i32* %3, align 4, !tbaa !5
  %13 = add nsw i32 %12, 31
  br label %44

14:                                               ; preds = %0
  %15 = load i32, i32* %3, align 4, !tbaa !5
  %16 = add nsw i32 %15, 59
  br label %44

17:                                               ; preds = %0
  %18 = load i32, i32* %3, align 4, !tbaa !5
  %19 = add nsw i32 %18, 90
  br label %44

20:                                               ; preds = %0
  %21 = load i32, i32* %3, align 4, !tbaa !5
  %22 = add nsw i32 %21, 120
  br label %44

23:                                               ; preds = %0
  %24 = load i32, i32* %3, align 4, !tbaa !5
  %25 = add nsw i32 %24, 151
  br label %44

26:                                               ; preds = %0
  %27 = load i32, i32* %3, align 4, !tbaa !5
  %28 = add nsw i32 %27, 181
  br label %44

29:                                               ; preds = %0
  %30 = load i32, i32* %3, align 4, !tbaa !5
  %31 = add nsw i32 %30, 212
  br label %44

32:                                               ; preds = %0
  %33 = load i32, i32* %3, align 4, !tbaa !5
  %34 = add nsw i32 %33, 243
  br label %44

35:                                               ; preds = %0
  %36 = load i32, i32* %3, align 4, !tbaa !5
  %37 = add nsw i32 %36, 273
  br label %44

38:                                               ; preds = %0
  %39 = load i32, i32* %3, align 4, !tbaa !5
  %40 = add nsw i32 %39, 304
  br label %44

41:                                               ; preds = %0
  %42 = load i32, i32* %3, align 4, !tbaa !5
  %43 = add nsw i32 %42, 334
  br label %44

44:                                               ; preds = %0, %41, %38, %35, %32, %29, %26, %23, %20, %17, %14, %11, %9
  %45 = phi i32 [ undef, %0 ], [ %43, %41 ], [ %40, %38 ], [ %37, %35 ], [ %34, %32 ], [ %31, %29 ], [ %28, %26 ], [ %25, %23 ], [ %22, %20 ], [ %19, %17 ], [ %16, %14 ], [ %13, %11 ], [ %10, %9 ]
  %46 = load i32, i32* %1, align 4, !tbaa !5
  %47 = srem i32 %46, 100
  %48 = srem i32 %46, 400
  %49 = or i32 %47, %48
  %50 = icmp eq i32 %49, 0
  br i1 %50, label %55, label %51

51:                                               ; preds = %44
  %52 = icmp eq i32 %48, 0
  %53 = icmp sgt i32 %8, 2
  %54 = select i1 %52, i1 %53, i1 false
  br i1 %54, label %57, label %59

55:                                               ; preds = %44
  %56 = icmp sgt i32 %8, 2
  br i1 %56, label %57, label %59

57:                                               ; preds = %51, %55
  %58 = add nsw i32 %45, 1
  br label %59

59:                                               ; preds = %57, %55, %51
  %60 = phi i32 [ %58, %57 ], [ %45, %55 ], [ %45, %51 ]
  %61 = call i32 (i8*, ...) @printf(i8* nonnull dereferenceable(1) getelementptr inbounds ([3 x i8], [3 x i8]* @.str.1, i64 0, i64 0), i32 %60)
  %62 = load %struct._IO_FILE*, %struct._IO_FILE** @stdin, align 8, !tbaa !9
  %63 = call i32 @getc(%struct._IO_FILE* %62) #3
  %64 = load %struct._IO_FILE*, %struct._IO_FILE** @stdin, align 8, !tbaa !9
  %65 = call i32 @getc(%struct._IO_FILE* %64) #3
  call void @llvm.lifetime.end.p0i8(i64 4, i8* nonnull %6) #3
  call void @llvm.lifetime.end.p0i8(i64 4, i8* nonnull %5) #3
  call void @llvm.lifetime.end.p0i8(i64 4, i8* nonnull %4) #3
  ret i32 0
}

; Function Attrs: argmemonly mustprogress nofree nosync nounwind willreturn
declare void @llvm.lifetime.start.p0i8(i64 immarg, i8* nocapture) #1

; Function Attrs: nofree nounwind
declare noundef i32 @__isoc99_scanf(i8* nocapture noundef readonly, ...) local_unnamed_addr #2

; Function Attrs: nofree nounwind
declare noundef i32 @printf(i8* nocapture noundef readonly, ...) local_unnamed_addr #2

; Function Attrs: argmemonly mustprogress nofree nosync nounwind willreturn
declare void @llvm.lifetime.end.p0i8(i64 immarg, i8* nocapture) #1

; Function Attrs: nofree nounwind
declare noundef i32 @getc(%struct._IO_FILE* nocapture noundef) local_unnamed_addr #2


!llvm.module.flags = !{!0, !1, !2, !3}
!llvm.ident = !{!4}

!0 = !{i32 1, !"wchar_size", i32 4}
!1 = !{i32 7, !"PIC Level", i32 2}
!2 = !{i32 7, !"PIE Level", i32 2}
!3 = !{i32 7, !"uwtable", i32 1}
!4 = !{!"clang version 13.0.0"}
!5 = !{!6, !6, i64 0}
!6 = !{!"int", !7, i64 0}
!7 = !{!"omnipotent char", !8, i64 0}
!8 = !{!"Simple C/C++ TBAA"}
!9 = !{!10, !10, i64 0}
!10 = !{!"any pointer", !7, i64 0}
